target datalayout = "e-m:e-p270:32:32-p271:32:32-p272:64:64-i64:64-i128:128-f80:128-n8:16:32:64-S128"
target triple = "x86_64-pc-linux-gnu"

%struct.rb_data_type_struct = type { ptr, %struct.anon, ptr, ptr, i64 }
%struct.anon = type { ptr, ptr, ptr, ptr, [1 x ptr] }
%struct.rb_io_buffer = type { ptr, i64, i32, i64 }
%struct.RTypedData = type { %struct.RBasic, ptr, i64, ptr }
%struct.RBasic = type { i64, i64 }

@rb_io_buffer_type = internal constant %struct.rb_data_type_struct { ptr @.str.108, %struct.anon { ptr @rb_io_buffer_type_mark, ptr @rb_io_buffer_type_free, ptr @rb_io_buffer_type_size, ptr null, [1 x ptr] zeroinitializer }, ptr null, ptr null, i64 35 }, align 8
@rb_cIOBuffer = dso_local global i64 0, align 8
@io_buffer_experimental.warned = internal global i32 0, align 4
@.str.113 = private unnamed_addr constant [87 x i8] c"IO::Buffer is experimental and both the Ruby and C interface may change in the future!\00", align 1
@.str.114 = private unnamed_addr constant [24 x i8] c"io_buffer_map_file:mmap\00", align 1

; Function Attrs: inlinehint nounwind sspstrong uwtable
define internal zeroext i1 @RTYPEDDATA_EMBEDDED_P(i64 noundef %0) #3 {
  %2 = alloca i64, align 8
  store i64 %0, ptr %2, align 8, !tbaa !20
  %3 = load i64, ptr %2, align 8, !tbaa !20
  %4 = inttoptr i64 %3 to ptr
  %5 = getelementptr inbounds nuw %struct.RTypedData, ptr %4, i32 0, i32 2
  %6 = load i64, ptr %5, align 8, !tbaa !95
  %7 = and i64 %6, 2
  %8 = icmp ne i64 %7, 0
  ret i1 %8
}

; Function Attrs: nounwind sspstrong uwtable
define internal void @io_buffer_zero(ptr noundef %0) #0 {
  %2 = alloca ptr, align 8
  store ptr %0, ptr %2, align 8, !tbaa !11
  %3 = load ptr, ptr %2, align 8, !tbaa !11
  %4 = getelementptr inbounds nuw %struct.rb_io_buffer, ptr %3, i32 0, i32 0
  store ptr null, ptr %4, align 8, !tbaa !17
  %5 = load ptr, ptr %2, align 8, !tbaa !11
  %6 = getelementptr inbounds nuw %struct.rb_io_buffer, ptr %5, i32 0, i32 1
  store i64 0, ptr %6, align 8, !tbaa !19
  %7 = load ptr, ptr %2, align 8, !tbaa !11
  %8 = getelementptr inbounds nuw %struct.rb_io_buffer, ptr %7, i32 0, i32 3
  store i64 4, ptr %8, align 8, !tbaa !13
  ret void
}

; Function Attrs: inlinehint nounwind sspstrong uwtable
define internal ptr @RTYPEDDATA_GET_DATA(i64 noundef %0) #3 {
  %2 = alloca i64, align 8
  %3 = alloca i64, align 8
  store i64 %0, ptr %2, align 8, !tbaa !20
  call void @llvm.lifetime.start.p0(i64 8, ptr %3) #22
  store i64 32, ptr %3, align 8, !tbaa !20
  %4 = load i64, ptr %2, align 8, !tbaa !20
  %5 = call zeroext i1 @RTYPEDDATA_EMBEDDED_P(i64 noundef %4)
  br i1 %5, label %6, label %10

6:                                                ; preds = %1
  %7 = load i64, ptr %2, align 8, !tbaa !20
  %8 = inttoptr i64 %7 to ptr
  %9 = getelementptr i8, ptr %8, i64 32
  br label %15

10:                                               ; preds = %1
  %11 = load i64, ptr %2, align 8, !tbaa !20
  %12 = inttoptr i64 %11 to ptr
  %13 = getelementptr inbounds nuw %struct.RTypedData, ptr %12, i32 0, i32 3
  %14 = load ptr, ptr %13, align 8, !tbaa !21
  br label %15

15:                                               ; preds = %10, %6
  %16 = phi ptr [ %9, %6 ], [ %14, %10 ]
  call void @llvm.lifetime.end.p0(i64 8, ptr %3) #22
  ret ptr %16
}

; Function Attrs: nounwind sspstrong uwtable
define internal void @io_buffer_map_file(ptr noundef %0, i32 noundef %1, i64 noundef %2, i64 noundef %3, i32 noundef %4) #0 {
  %6 = alloca ptr, align 8
  %7 = alloca i32, align 4
  %8 = alloca i64, align 8
  %9 = alloca i64, align 8
  %10 = alloca i32, align 4
  %11 = alloca i32, align 4
  %12 = alloca i32, align 4
  %13 = alloca ptr, align 8
  %14 = alloca i32, align 4
  store ptr %0, ptr %6, align 8, !tbaa !11
  store i32 %1, ptr %7, align 4, !tbaa !32
  store i64 %2, ptr %8, align 8, !tbaa !20
  store i64 %3, ptr %9, align 8, !tbaa !20
  store i32 %4, ptr %10, align 4, !tbaa !32
  call void @llvm.lifetime.start.p0(i64 4, ptr %11) #22
  store i32 1, ptr %11, align 4, !tbaa !32
  call void @llvm.lifetime.start.p0(i64 4, ptr %12) #22
  store i32 0, ptr %12, align 4, !tbaa !32
  %15 = load i32, ptr %10, align 4, !tbaa !32
  %16 = and i32 %15, 128
  %17 = icmp ne i32 %16, 0
  br i1 %17, label %18, label %23

18:                                               ; preds = %5
  %19 = load ptr, ptr %6, align 8, !tbaa !11
  %20 = getelementptr inbounds nuw %struct.rb_io_buffer, ptr %19, i32 0, i32 2
  %21 = load i32, ptr %20, align 8, !tbaa !18
  %22 = or i32 %21, 128
  store i32 %22, ptr %20, align 8, !tbaa !18
  br label %26

23:                                               ; preds = %5
  %24 = load i32, ptr %11, align 4, !tbaa !32
  %25 = or i32 %24, 2
  store i32 %25, ptr %11, align 4, !tbaa !32
  br label %26

26:                                               ; preds = %23, %18
  %27 = load i32, ptr %10, align 4, !tbaa !32
  %28 = and i32 %27, 64
  %29 = icmp ne i32 %28, 0
  br i1 %29, label %30, label %37

30:                                               ; preds = %26
  %31 = load ptr, ptr %6, align 8, !tbaa !11
  %32 = getelementptr inbounds nuw %struct.rb_io_buffer, ptr %31, i32 0, i32 2
  %33 = load i32, ptr %32, align 8, !tbaa !18
  %34 = or i32 %33, 64
  store i32 %34, ptr %32, align 8, !tbaa !18
  %35 = load i32, ptr %12, align 4, !tbaa !32
  %36 = or i32 %35, 2
  store i32 %36, ptr %12, align 4, !tbaa !32
  br label %48

37:                                               ; preds = %26
  %38 = load ptr, ptr %6, align 8, !tbaa !11
  %39 = getelementptr inbounds nuw %struct.rb_io_buffer, ptr %38, i32 0, i32 2
  %40 = load i32, ptr %39, align 8, !tbaa !18
  %41 = or i32 %40, 1
  store i32 %41, ptr %39, align 8, !tbaa !18
  %42 = load ptr, ptr %6, align 8, !tbaa !11
  %43 = getelementptr inbounds nuw %struct.rb_io_buffer, ptr %42, i32 0, i32 2
  %44 = load i32, ptr %43, align 8, !tbaa !18
  %45 = or i32 %44, 8
  store i32 %45, ptr %43, align 8, !tbaa !18
  %46 = load i32, ptr %12, align 4, !tbaa !32
  %47 = or i32 %46, 1
  store i32 %47, ptr %12, align 4, !tbaa !32
  br label %48

48:                                               ; preds = %37, %30
  call void @llvm.lifetime.start.p0(i64 8, ptr %13) #22
  %49 = load i64, ptr %8, align 8, !tbaa !20
  %50 = load i32, ptr %11, align 4, !tbaa !32
  %51 = load i32, ptr %12, align 4, !tbaa !32
  %52 = load i32, ptr %7, align 4, !tbaa !32
  %53 = load i64, ptr %9, align 8, !tbaa !20
  %54 = call ptr @mmap(ptr noundef null, i64 noundef %49, i32 noundef %50, i32 noundef %51, i32 noundef %52, i64 noundef %53) #22
  store ptr %54, ptr %13, align 8, !tbaa !7
  %55 = load ptr, ptr %13, align 8, !tbaa !7
  %56 = icmp eq ptr %55, inttoptr (i64 -1 to ptr)
  br i1 %56, label %57, label %64

57:                                               ; preds = %48
  br label %58

58:                                               ; preds = %57
  call void @llvm.lifetime.start.p0(i64 4, ptr %14) #22
  %59 = call ptr @rb_errno_ptr()
  %60 = load i32, ptr %59, align 4, !tbaa !32
  store i32 %60, ptr %14, align 4, !tbaa !32
  %61 = load i32, ptr %14, align 4, !tbaa !32
  call void @rb_syserr_fail(i32 noundef %61, ptr noundef @.str.114) #26
  unreachable

62:                                               ; No predecessors!
  br label %63

63:                                               ; preds = %62
  br label %64

64:                                               ; preds = %63, %48
  %65 = load ptr, ptr %13, align 8, !tbaa !7
  %66 = load ptr, ptr %6, align 8, !tbaa !11
  %67 = getelementptr inbounds nuw %struct.rb_io_buffer, ptr %66, i32 0, i32 0
  store ptr %65, ptr %67, align 8, !tbaa !17
  %68 = load i64, ptr %8, align 8, !tbaa !20
  %69 = load ptr, ptr %6, align 8, !tbaa !11
  %70 = getelementptr inbounds nuw %struct.rb_io_buffer, ptr %69, i32 0, i32 1
  store i64 %68, ptr %70, align 8, !tbaa !19
  %71 = load ptr, ptr %6, align 8, !tbaa !11
  %72 = getelementptr inbounds nuw %struct.rb_io_buffer, ptr %71, i32 0, i32 2
  %73 = load i32, ptr %72, align 8, !tbaa !18
  %74 = or i32 %73, 4
  store i32 %74, ptr %72, align 8, !tbaa !18
  %75 = load ptr, ptr %6, align 8, !tbaa !11
  %76 = getelementptr inbounds nuw %struct.rb_io_buffer, ptr %75, i32 0, i32 2
  %77 = load i32, ptr %76, align 8, !tbaa !18
  %78 = or i32 %77, 256
  store i32 %78, ptr %76, align 8, !tbaa !18
  call void @llvm.lifetime.end.p0(i64 8, ptr %13) #22
  call void @llvm.lifetime.end.p0(i64 4, ptr %12) #22
  call void @llvm.lifetime.end.p0(i64 4, ptr %11) #22
  ret void
}

; Function Attrs: nounwind sspstrong uwtable
define hidden i64 @rb_io_buffer_type_allocate(i64 noundef %0) #0 {
  %2 = alloca i64, align 8
  %3 = alloca ptr, align 8
  %4 = alloca i64, align 8
  %5 = alloca i64, align 8
  %6 = alloca i64, align 8
  store i64 %0, ptr %2, align 8, !tbaa !20
  call void @llvm.lifetime.start.p0(i64 8, ptr %3) #22
  store ptr null, ptr %3, align 8, !tbaa !11
  call void @llvm.lifetime.start.p0(i64 8, ptr %4) #22
  call void @llvm.lifetime.start.p0(i64 8, ptr %5) #22
  %7 = load i64, ptr %2, align 8, !tbaa !20
  %8 = call i64 @rb_data_typed_object_zalloc(i64 noundef %7, i64 noundef 32, ptr noundef @rb_io_buffer_type)
  store i64 %8, ptr %5, align 8, !tbaa !20
  %9 = load i64, ptr %5, align 8, !tbaa !20
  %10 = call ptr @RTYPEDDATA_GET_DATA(i64 noundef %9)
  store ptr %10, ptr %3, align 8, !tbaa !11
  %11 = load i64, ptr %5, align 8, !tbaa !20
  store i64 %11, ptr %6, align 8, !tbaa !20
  call void @llvm.lifetime.end.p0(i64 8, ptr %5) #22
  %12 = load i64, ptr %6, align 8, !tbaa !20
  store i64 %12, ptr %4, align 8, !tbaa !20
  %13 = load ptr, ptr %3, align 8, !tbaa !11
  call void @io_buffer_zero(ptr noundef %13)
  %14 = load i64, ptr %4, align 8, !tbaa !20
  call void @llvm.lifetime.end.p0(i64 8, ptr %4) #22
  call void @llvm.lifetime.end.p0(i64 8, ptr %3) #22
  ret i64 %14
}

; Function Attrs: nounwind sspstrong uwtable
define internal void @io_buffer_experimental() #0 {
  %1 = load i32, ptr @io_buffer_experimental.warned, align 4, !tbaa !32
  %2 = icmp ne i32 %1, 0
  br i1 %2, label %3, label %4

3:                                                ; preds = %0
  br label %7

4:                                                ; preds = %0
  store i32 1, ptr @io_buffer_experimental.warned, align 4, !tbaa !32
  %5 = call zeroext i1 @rb_warning_category_enabled_p(i32 noundef 2)
  br i1 %5, label %6, label %7

6:                                                ; preds = %4
  call void (i32, ptr, ...) @rb_category_warn(i32 noundef 2, ptr noundef @.str.113) #27
  br label %7

7:                                                ; preds = %3, %6, %4
  ret void
}

; Function Attrs: nounwind sspstrong uwtable
define dso_local i64 @rb_io_buffer_map(i64 noundef %0, i64 noundef %1, i64 noundef %2, i32 noundef %3) #0 {
  %5 = alloca i64, align 8
  %6 = alloca i64, align 8
  %7 = alloca i64, align 8
  %8 = alloca i32, align 4
  %9 = alloca i64, align 8
  %10 = alloca ptr, align 8
  %11 = alloca i32, align 4
  store i64 %0, ptr %5, align 8, !tbaa !20
  store i64 %1, ptr %6, align 8, !tbaa !20
  store i64 %2, ptr %7, align 8, !tbaa !20
  store i32 %3, ptr %8, align 4, !tbaa !32
  call void @io_buffer_experimental()
  call void @llvm.lifetime.start.p0(i64 8, ptr %9) #22
  %12 = load i64, ptr @rb_cIOBuffer, align 8, !tbaa !20
  %13 = call i64 @rb_io_buffer_type_allocate(i64 noundef %12)
  store i64 %13, ptr %9, align 8, !tbaa !20
  call void @llvm.lifetime.start.p0(i64 8, ptr %10) #22
  store ptr null, ptr %10, align 8, !tbaa !11
  %14 = load i64, ptr %9, align 8, !tbaa !20
  %15 = call ptr @rb_check_typeddata(i64 noundef %14, ptr noundef @rb_io_buffer_type)
  store ptr %15, ptr %10, align 8, !tbaa !11
  call void @llvm.lifetime.start.p0(i64 4, ptr %11) #22
  %16 = load i64, ptr %5, align 8, !tbaa !20
  %17 = call i32 @rb_io_descriptor(i64 noundef %16)
  store i32 %17, ptr %11, align 4, !tbaa !32
  %18 = load ptr, ptr %10, align 8, !tbaa !11
  %19 = load i32, ptr %11, align 4, !tbaa !32
  %20 = load i64, ptr %6, align 8, !tbaa !20
  %21 = load i64, ptr %7, align 8, !tbaa !20
  %22 = load i32, ptr %8, align 4, !tbaa !32
  call void @io_buffer_map_file(ptr noundef %18, i32 noundef %19, i64 noundef %20, i64 noundef %21, i32 noundef %22)
  %23 = load i64, ptr %9, align 8, !tbaa !20
  call void @llvm.lifetime.end.p0(i64 4, ptr %11) #22
  call void @llvm.lifetime.end.p0(i64 8, ptr %10) #22
  call void @llvm.lifetime.end.p0(i64 8, ptr %9) #22
  ret i64 %23
}