; Function Attrs: nounwind sspstrong uwtable
define dso_local i64 @rb_io_buffer_map(i64 noundef %0, i64 noundef %1, i64 noundef %2, i32 noundef %3) local_unnamed_addr #0 {
  %.b.i = load i1, ptr @io_buffer_experimental.warned, align 4
  br i1 %.b.i, label %io_buffer_experimental.exit, label %5

5:                                                ; preds = %4
  store i1 true, ptr @io_buffer_experimental.warned, align 4
  %6 = tail call zeroext i1 @rb_warning_category_enabled_p(i32 noundef 2) #25
  br i1 %6, label %7, label %io_buffer_experimental.exit

7:                                                ; preds = %5
  tail call void (i32, ptr, ...) @rb_category_warn(i32 noundef 2, ptr noundef nonnull @.str.113) #28
  br label %io_buffer_experimental.exit

io_buffer_experimental.exit:                      ; preds = %4, %5, %7
  %8 = load i64, ptr @rb_cIOBuffer, align 8, !tbaa !22
  %9 = tail call i64 @rb_data_typed_object_zalloc(i64 noundef %8, i64 noundef 32, ptr noundef nonnull @rb_io_buffer_type) #25
  %10 = inttoptr i64 %9 to ptr
  %11 = getelementptr inbounds nuw i8, ptr %10, i64 24
  %12 = load i64, ptr %11, align 8, !tbaa !17
  %13 = and i64 %12, 2
  %.not.i.i = icmp eq i64 %13, 0
  %14 = getelementptr i8, ptr %10, i64 32
  br i1 %.not.i.i, label %15, label %rb_io_buffer_type_allocate.exit

15:                                               ; preds = %io_buffer_experimental.exit
  %16 = load ptr, ptr %14, align 8, !tbaa !21
  br label %rb_io_buffer_type_allocate.exit

rb_io_buffer_type_allocate.exit:                  ; preds = %io_buffer_experimental.exit, %15
  %17 = phi ptr [ %16, %15 ], [ %14, %io_buffer_experimental.exit ]
  %18 = getelementptr inbounds nuw i8, ptr %17, i64 24
  tail call void @llvm.memset.p0.i64(ptr noundef nonnull align 8 dereferenceable(16) %17, i8 0, i64 16, i1 false)
  store i64 4, ptr %18, align 8, !tbaa !7
  %19 = tail call ptr @rb_check_typeddata(i64 noundef %9, ptr noundef nonnull @rb_io_buffer_type) #25
  %20 = tail call i32 @rb_io_descriptor(i64 noundef %0) #25
  %21 = and i32 %3, 128
  %.not.i = icmp eq i32 %21, 0
  %.phi.trans.insert = getelementptr inbounds nuw i8, ptr %19, i64 16
  %.pre = load i32, ptr %.phi.trans.insert, align 8, !tbaa !15
  %.0.i = select i1 %.not.i, i32 3, i32 1
  %22 = and i32 %3, 64
  %.not23.i = icmp eq i32 %22, 0
  %23 = getelementptr inbounds nuw i8, ptr %19, i64 16
  %..i = select i1 %.not23.i, i32 9, i32 64
  %.25.i = select i1 %.not23.i, i32 1, i32 2
  %24 = or i32 %.pre, %..i
  %25 = or i32 %24, %21
  store i32 %25, ptr %23, align 8, !tbaa !15
  %26 = tail call ptr @mmap(ptr noundef null, i64 noundef %1, i32 noundef %.0.i, i32 noundef %.25.i, i32 noundef %20, i64 noundef %2) #25
  %27 = icmp eq ptr %26, inttoptr (i64 -1 to ptr)
  br i1 %27, label %28, label %io_buffer_map_file.exit

28:                                               ; preds = %rb_io_buffer_type_allocate.exit
  %29 = tail call ptr @rb_errno_ptr() #25
  %30 = load i32, ptr %29, align 4, !tbaa !34
  tail call void @rb_syserr_fail(i32 noundef %30, ptr noundef nonnull @.str.114) #26
  unreachable

io_buffer_map_file.exit:                          ; preds = %rb_io_buffer_type_allocate.exit
  store ptr %26, ptr %19, align 8, !tbaa !14
  %31 = getelementptr inbounds nuw i8, ptr %19, i64 8
  store i64 %1, ptr %31, align 8, !tbaa !16
  %32 = load i32, ptr %23, align 8, !tbaa !15
  %33 = or i32 %32, 260
  store i32 %33, ptr %23, align 8, !tbaa !15
  ret i64 %9
}